; Function Attrs: nounwind uwtable
define nonnull ptr @l_Std_Internal_Parsec_ByteArray_instInputIteratorUInt8Nat___lambda__3___boxed(ptr noundef %0) #0 {
  %2 = getelementptr inbounds nuw i8, ptr %0, i64 8
  %3 = load ptr, ptr %2, align 8, !tbaa !4
  %4 = getelementptr inbounds nuw i8, ptr %0, i64 16
  %5 = load ptr, ptr %4, align 8, !tbaa !4
  %6 = getelementptr i8, ptr %3, i64 8
  %.val.i = load i64, ptr %6, align 8, !tbaa !13
  %7 = shl i64 %.val.i, 1
  %8 = or disjoint i64 %7, 1
  %9 = inttoptr i64 %8 to ptr
  %10 = ptrtoint ptr %5 to i64
  %11 = and i64 %10, 1
  %.not.i3 = icmp eq i64 %11, 0
  br i1 %.not.i3, label %.critedge.i.i, label %12, !prof !12

12:                                               ; preds = %1
  %13 = icmp ult ptr %5, %9
  br label %l_Std_Internal_Parsec_ByteArray_instInputIteratorUInt8Nat___lambda__3.exit

.critedge.i.i:                                    ; preds = %1
  %14 = tail call zeroext i1 @lean_nat_big_lt(ptr noundef %5, ptr noundef nonnull %9) #6
  br label %l_Std_Internal_Parsec_ByteArray_instInputIteratorUInt8Nat___lambda__3.exit

l_Std_Internal_Parsec_ByteArray_instInputIteratorUInt8Nat___lambda__3.exit: ; preds = %12, %.critedge.i.i
  %.0.i.i = phi i1 [ %13, %12 ], [ %14, %.critedge.i.i ]
  %15 = lshr i64 %10, 1
  %16 = getelementptr inbounds nuw i8, ptr %3, i64 24
  %17 = getelementptr inbounds nuw i8, ptr %16, i64 %15
  %.0.in.i = select i1 %.0.i.i, ptr %17, ptr @l_Std_Internal_Parsec_ByteArray_instInputIteratorUInt8Nat___lambda__3___closed__1
  %.0.i = load i8, ptr %.0.in.i, align 1, !tbaa !15
  %18 = ptrtoint ptr %0 to i64
  %19 = and i64 %18, 1
  %.not = icmp eq i64 %19, 0
  br i1 %.not, label %20, label %lean_dec.exit

20:                                               ; preds = %l_Std_Internal_Parsec_ByteArray_instInputIteratorUInt8Nat___lambda__3.exit
  %21 = load i32, ptr %0, align 4, !tbaa !8
  %22 = icmp sgt i32 %21, 1
  br i1 %22, label %23, label %25, !prof !11

23:                                               ; preds = %20
  %24 = add nsw i32 %21, -1
  store i32 %24, ptr %0, align 4, !tbaa !8
  br label %lean_dec.exit

25:                                               ; preds = %20
  %.not.i = icmp eq i32 %21, 0
  br i1 %.not.i, label %lean_dec.exit, label %26

26:                                               ; preds = %25
  tail call void @lean_dec_ref_cold(ptr noundef nonnull %0) #6
  br label %lean_dec.exit

lean_dec.exit:                                    ; preds = %26, %25, %23, %l_Std_Internal_Parsec_ByteArray_instInputIteratorUInt8Nat___lambda__3.exit
  %27 = zext i8 %.0.i to i64
  %28 = shl nuw nsw i64 %27, 1
  %29 = or disjoint i64 %28, 1
  %30 = inttoptr i64 %29 to ptr
  ret ptr %30
}